; Function Attrs: mustprogress uwtable
define void @_ZN6casadi10FiniteDiff11get_name_inB5cxx11Ex(ptr dead_on_unwind noalias writable sret(%"class.std::__cxx11::basic_string") align 8 %0, ptr noundef nonnull align 8 dereferenceable(1392) %1, i64 noundef %2) unnamed_addr #3 align 2 {
  %4 = getelementptr inbounds i8, ptr %1, i64 704
  %5 = tail call noundef i64 @_ZNK6casadi8Function4n_inEv(ptr noundef nonnull align 8 dereferenceable(8) %4)
  %6 = tail call noundef i64 @_ZNK6casadi8Function5n_outEv(ptr noundef nonnull align 8 dereferenceable(8) %4)
  %7 = icmp sgt i64 %5, %2
  br i1 %7, label %8, label %10

8:                                                ; preds = %3
  %9 = tail call noundef nonnull align 8 dereferenceable(32) ptr @_ZNK6casadi8Function7name_inB5cxx11Ex(ptr noundef nonnull align 8 dereferenceable(8) %4, i64 noundef %2)
  tail call void @_ZNSt7__cxx1112basic_stringIcSt11char_traitsIcESaIcEEC1ERKS4_(ptr noundef nonnull align 8 dereferenceable(32) %0, ptr noundef nonnull align 8 dereferenceable(32) %9)
  br label %19

10:                                               ; preds = %3
  %11 = add nsw i64 %6, %5
  %12 = icmp sgt i64 %11, %2
  br i1 %12, label %13, label %16

13:                                               ; preds = %10
  %14 = sub nsw i64 %2, %5
  %15 = tail call noundef nonnull align 8 dereferenceable(32) ptr @_ZNK6casadi8Function8name_outB5cxx11Ex(ptr noundef nonnull align 8 dereferenceable(8) %4, i64 noundef %14)
  tail call void @_ZStplIcSt11char_traitsIcESaIcEENSt7__cxx1112basic_stringIT_T0_T1_EEPKS5_RKS8_(ptr dead_on_unwind writable sret(%"class.std::__cxx11::basic_string") align 8 %0, ptr noundef nonnull @.str.36, ptr noundef nonnull align 8 dereferenceable(32) %15)
  br label %19

16:                                               ; preds = %10
  %17 = sub i64 %2, %11
  %18 = tail call noundef nonnull align 8 dereferenceable(32) ptr @_ZNK6casadi8Function7name_inB5cxx11Ex(ptr noundef nonnull align 8 dereferenceable(8) %4, i64 noundef %17)
  tail call void @_ZStplIcSt11char_traitsIcESaIcEENSt7__cxx1112basic_stringIT_T0_T1_EEPKS5_RKS8_(ptr dead_on_unwind writable sret(%"class.std::__cxx11::basic_string") align 8 %0, ptr noundef nonnull @.str.37, ptr noundef nonnull align 8 dereferenceable(32) %18)
  br label %19

19:                                               ; preds = %16, %13, %8
  ret void
}